target datalayout = "e-m:e-p270:32:32-p271:32:32-p272:64:64-i64:64-i128:128-f80:128-n8:16:32:64-S128"
target triple = "x86_64-pc-linux-gnu"

@.str.26 = private unnamed_addr constant [1 x i8] zeroinitializer, align 1
@git_gettext_enabled = external global i32, align 4

; Function Attrs: inlinehint nounwind uwtable
define internal ptr @_(ptr noundef %0) #5 {
  %2 = alloca ptr, align 8
  %3 = alloca ptr, align 8
  store ptr %0, ptr %3, align 8, !tbaa !11
  %4 = load ptr, ptr %3, align 8, !tbaa !11
  %5 = load i8, ptr %4, align 1, !tbaa !92
  %6 = icmp ne i8 %5, 0
  br i1 %6, label %8, label %7

7:                                                ; preds = %1
  store ptr @.str.26, ptr %2, align 8
  br label %16

8:                                                ; preds = %1
  %9 = load i32, ptr @git_gettext_enabled, align 4, !tbaa !4
  %10 = icmp ne i32 %9, 0
  br i1 %10, label %13, label %11

11:                                               ; preds = %8
  %12 = load ptr, ptr %3, align 8, !tbaa !11
  store ptr %12, ptr %2, align 8
  br label %16

13:                                               ; preds = %8
  %14 = load ptr, ptr %3, align 8, !tbaa !11
  %15 = call ptr @dcgettext(ptr noundef null, ptr noundef %14, i32 noundef 5) #11
  store ptr %15, ptr %2, align 8
  br label %16

16:                                               ; preds = %13, %11, %7
  %17 = load ptr, ptr %2, align 8
  ret ptr %17
}